target datalayout = "e-m:e-p270:32:32-p271:32:32-p272:64:64-i64:64-i128:128-f80:128-n8:16:32:64-S128"
target triple = "x86_64-unknown-linux-gnu"

%"class.icu_75::UObject" = type { ptr }
%"class.icu_75::UnicodeString" = type { %"class.icu_75::Replaceable", %"union.icu_75::UnicodeString::StackBufferOrFields" }
%"class.icu_75::Replaceable" = type { %"class.icu_75::UObject" }
%"union.icu_75::UnicodeString::StackBufferOrFields" = type { %struct.anon.0, [32 x i8] }
%struct.anon.0 = type { i16, i32, i32, ptr }
%"class.icu_75::Formattable" = type { %"class.icu_75::UObject", %union.anon, ptr, ptr, i32, %"class.icu_75::UnicodeString" }
%union.anon = type { %struct.anon.1 }
%struct.anon.1 = type { ptr, i32 }

; Function Attrs: mustprogress uwtable
define i32 @unum_parse_75(ptr noundef %fmt, ptr noundef %text, i32 noundef %textLength, ptr noundef %parsePos, ptr noundef %status) #0 personality ptr @__gxx_personality_v0 {
entry:
  %fmt.addr = alloca ptr, align 8
  %text.addr = alloca ptr, align 8
  %textLength.addr = alloca i32, align 4
  %parsePos.addr = alloca ptr, align 8
  %status.addr = alloca ptr, align 8
  %res = alloca %"class.icu_75::Formattable", align 8
  %exn.slot = alloca ptr, align 8
  %ehselector.slot = alloca i32, align 4
  store ptr %fmt, ptr %fmt.addr, align 8
  store ptr %text, ptr %text.addr, align 8
  store i32 %textLength, ptr %textLength.addr, align 4
  store ptr %parsePos, ptr %parsePos.addr, align 8
  store ptr %status, ptr %status.addr, align 8
  call void @_ZN6icu_7511FormattableC1Ev(ptr noundef nonnull align 8 dereferenceable(112) %res)
  %0 = load ptr, ptr %fmt.addr, align 8
  %1 = load ptr, ptr %text.addr, align 8
  %2 = load i32, ptr %textLength.addr, align 4
  %3 = load ptr, ptr %parsePos.addr, align 8
  %4 = load ptr, ptr %status.addr, align 8
  invoke void @_ZL8parseResRN6icu_7511FormattableEPKPvPKDsiPiP10UErrorCode(ptr noundef nonnull align 8 dereferenceable(112) %res, ptr noundef %0, ptr noundef %1, i32 noundef %2, ptr noundef %3, ptr noundef %4)
          to label %invoke.cont unwind label %lpad

invoke.cont:                                      ; preds = %entry
  %5 = load ptr, ptr %status.addr, align 8
  %call = invoke noundef i32 @_ZNK6icu_7511Formattable7getLongER10UErrorCode(ptr noundef nonnull align 8 dereferenceable(112) %res, ptr noundef nonnull align 4 dereferenceable(4) %5)
          to label %invoke.cont1 unwind label %lpad

invoke.cont1:                                     ; preds = %invoke.cont
  call void @_ZN6icu_7511FormattableD1Ev(ptr noundef nonnull align 8 dereferenceable(112) %res) #8
  ret i32 %call

lpad:                                             ; preds = %invoke.cont, %entry
  %6 = landingpad { ptr, i32 }
          cleanup
  %7 = extractvalue { ptr, i32 } %6, 0
  store ptr %7, ptr %exn.slot, align 8
  %8 = extractvalue { ptr, i32 } %6, 1
  store i32 %8, ptr %ehselector.slot, align 4
  call void @_ZN6icu_7511FormattableD1Ev(ptr noundef nonnull align 8 dereferenceable(112) %res) #8
  br label %eh.resume

eh.resume:                                        ; preds = %lpad
  %exn = load ptr, ptr %exn.slot, align 8
  %sel = load i32, ptr %ehselector.slot, align 4
  %lpad.val = insertvalue { ptr, i32 } poison, ptr %exn, 0
  %lpad.val2 = insertvalue { ptr, i32 } %lpad.val, i32 %sel, 1
  resume { ptr, i32 } %lpad.val2
}